target datalayout = "e-m:e-p270:32:32-p271:32:32-p272:64:64-i64:64-i128:128-f80:128-n8:16:32:64-S128"
target triple = "x86_64-unknown-linux-gnu"

%"class.sat::literal" = type { i32 }
%class.params_ref = type { ptr }
%class.symbol = type { ptr }
%"class.sat::cut_simplifier" = type { ptr, %"struct.sat::cut_simplifier::stats", %"struct.sat::cut_simplifier::config", %"class.sat::aig_cuts", i32, %class.svector, ptr, %class.hashtable }
%"struct.sat::cut_simplifier::stats" = type { i32, i32, i32, i32, i32, i32, i32, i32, i32, i32, i32, i32, i32 }
%"struct.sat::cut_simplifier::config" = type { i8, i8, i8, i8, i8, i8, i8 }
%"class.sat::aig_cuts" = type { %class.random_gen, %"struct.sat::aig_cuts::config", %class.vector, %class.svector, %class.region, %"class.sat::cut_set", %"class.sat::cut_set", %"class.sat::cut_set", %class.vector.1, %class.svector.2, %class.svector.2, i32, i32, %class.svector.4, i32, %"class.std::function", %"class.std::function", %"class.std::function.6", %"class.std::function.6", %class.svector, [6 x ptr], [6 x i64], [6 x %"class.sat::literal"] }
%class.random_gen = type { i32 }
%"struct.sat::aig_cuts::config" = type <{ i32, i32, i32, i8, [3 x i8] }>
%class.vector = type { ptr }
%class.region = type { ptr, ptr, ptr, ptr, ptr }
%"class.sat::cut_set" = type { i32, ptr, i32, i32, ptr }
%class.vector.1 = type { ptr }
%class.svector.2 = type { %class.vector.3 }
%class.vector.3 = type { ptr }
%class.svector.4 = type { %class.vector.5 }
%class.vector.5 = type { ptr }
%"class.std::function" = type { %"class.std::_Function_base", ptr }
%"class.std::_Function_base" = type { %"union.std::_Any_data", ptr }
%"union.std::_Any_data" = type { %"union.std::_Nocopy_types" }
%"union.std::_Nocopy_types" = type { { i64, i64 } }
%"class.std::function.6" = type { %"class.std::_Function_base", ptr }
%class.svector = type { %class.vector.0 }
%class.vector.0 = type { ptr }
%class.hashtable = type { %class.core_hashtable.base, [4 x i8] }
%class.core_hashtable.base = type <{ ptr, i32, i32, i32 }>
%"struct.sat::config" = type <{ i64, i32, i32, i32, i8, [3 x i8], i32, i32, double, i32, i8, [3 x i8], i32, i8, [3 x i8], i32, [4 x i8], double, double, i32, i32, double, double, i32, [4 x i8], %class.symbol, double, i32, i32, i8, [3 x i8], i32, i32, i8, [3 x i8], i32, i8, [3 x i8], i32, i8, [3 x i8], i32, i8, i8, i8, i8, i32, i8, i8, i8, i8, i8, i8, i8, i8, i32, i8, i8, i8, i8, i32, double, i32, [4 x i8], double, double, double, double, i32, i8, i8, [2 x i8], double, i8, i8, [2 x i8], i32, double, i32, i32, i32, i32, i32, i32, i32, i32, i8, i8, i8, i8, i32, i32, i8, i8, i8, i8, i8, i8, i8, [5 x i8], %class.symbol, i8, i8, i8, i8, i8, i8, [2 x i8], i32, i32, i32, i8, [3 x i8], double, double, double, double, double, i8, [7 x i8] }>
%"class.sat::solver" = type { %"class.sat::solver_core", i8, [7 x i8], %"struct.sat::config", %"struct.sat::stats", %class.scoped_ptr, %class.scoped_ptr.8, ptr, %"class.sat::drat", [2 x %"class.sat::clause_allocator"], i8, %class.random_gen, %"class.sat::cleaner", %class.svector.19, %"class.sat::model_converter", i8, %"class.sat::simplifier", %"class.sat::scc", %"class.sat::asymm_branch", %"class.sat::probing", i8, [7 x i8], %"class.sat::mus", %"class.sat::binspr", i8, i8, [6 x i8], %"class.sat::justification", %"class.sat::literal", %class.ptr_vector.26, %class.ptr_vector.26, i32, %class.svector.2, %class.svector.2, %class.svector.2, %class.svector.2, %class.vector.44, %class.svector.19, %class.svector.45, %class.svector.22, %class.svector.22, %class.svector.22, %class.svector.22, %class.svector.22, %class.svector.2, %class.svector.2, i32, %class.svector, %class.svector.2, i32, %class.svector.47, %class.svector.47, %class.svector.47, %class.svector.47, %class.svector.47, i32, double, %class.svector.22, %class.svector.22, %class.svector.22, %class.svector.30, i32, i32, i32, i32, i32, i32, %"struct.sat::backoff", i32, i32, %"struct.sat::backoff", %"struct.sat::backoff", %class.var_queue, i32, i32, i32, %class.ema, %class.ema, %class.ema, %class.ema, %class.ema, %class.svector, %class.svector.32, %"class.std::__cxx11::basic_string", i8, %class.visit_helper, %class.svector.49, %class.scoped_limit_trail, %class.stopwatch, %class.params_ref, %"struct.sat::no_drat_params", %class.scoped_ptr.42, %class.svector, %"class.sat::literal_set", %"class.sat::literal_set", %class.svector, i32, i32, i32, i32, i8, ptr, ptr, %class.statistics, i32, i32, i32, i32, i8, i32, i32, i32, i32, i32, i32, i32, double, i32, double, i8, i8, %class.svector, i8, %class.svector.47, i32, i32, i32, %class.svector, %class.svector, %class.svector.30, %class.svector.2, %class.approx_set_tpl, %class.svector, %class.svector, %class.vector.18, %class.svector, %class.svector.40, %class.u_map, %class.svector }
%"class.sat::solver_core" = type { ptr, ptr }
%"struct.sat::stats" = type { i32, i32, i32, i32, i32, i32, i32, i32, i32, i32, i32, i32, i32, i32, i32, i32, i32, i32, i32, i32, i32 }
%class.scoped_ptr = type { ptr }
%class.scoped_ptr.8 = type { ptr }
%"class.sat::drat" = type { ptr, %class.svector.9, ptr, %"class.sat::clause_allocator", ptr, ptr, %class.svector.14, %class.svector.16, %class.vector.18, %class.svector.19, i8, i8, i8, i8, i8, %"struct.sat::drat::stats" }
%class.svector.9 = type { %class.vector.10 }
%class.vector.10 = type { ptr }
%"class.sat::clause_allocator" = type { %class.sat_allocator, %class.id_gen }
%class.sat_allocator = type { ptr, i64, %class.ptr_vector, ptr, [65 x %class.ptr_vector.12] }
%class.ptr_vector = type { %class.vector.11 }
%class.vector.11 = type { ptr }
%class.ptr_vector.12 = type { %class.vector.13 }
%class.vector.13 = type { ptr }
%class.id_gen = type { i32, %class.svector.2 }
%class.svector.14 = type { %class.vector.15 }
%class.vector.15 = type { ptr }
%class.svector.16 = type { %class.vector.17 }
%class.vector.17 = type { ptr }
%"struct.sat::drat::stats" = type { i32, i32, i32, i32 }
%"class.sat::cleaner" = type { ptr, i32, i32, i32, i32 }
%"class.sat::model_converter" = type { %class.vector.21, i32, %class.svector.22, ptr, %class.svector.4 }
%class.vector.21 = type { ptr }
%"class.sat::simplifier" = type { ptr, i32, %"class.sat::use_list", %"class.sat::ext_use_list", %"class.sat::clause_set", %class.svector.28, i32, %class.tracked_uint_set, i8, %"class.sat::tmp_clause", %class.svector.30, i32, i32, i8, i8, i8, i8, i32, i8, i8, i32, i8, i32, i8, i8, i32, i32, i32, i32, i32, i32, i32, i32, i32, i32, i8, i32, i8, i8, i32, i32, i32, i32, i32, i32, i32, i32, i32, i32, i32, i8, i32, %class.ptr_vector.26, %class.svector, %class.svector.32, %class.svector.32, %class.svector }
%"class.sat::use_list" = type { %class.vector.24 }
%class.vector.24 = type { ptr }
%"class.sat::ext_use_list" = type { %class.vector.25 }
%class.vector.25 = type { ptr }
%"class.sat::clause_set" = type { %class.svector.2, %class.ptr_vector.26 }
%class.svector.28 = type { %class.vector.29 }
%class.vector.29 = type { ptr }
%class.tracked_uint_set = type { %class.svector.30, %class.svector.2 }
%"class.sat::tmp_clause" = type { ptr }
%"class.sat::scc" = type { ptr, i8, i8, i32, i32, %"class.sat::big" }
%"class.sat::big" = type { ptr, i32, %class.vector.34, %class.svector.22, %class.svector.35, %class.svector.35, %class.svector, %class.svector, i8, i8, %class.vector.34 }
%class.svector.35 = type { %class.vector.36 }
%class.vector.36 = type { ptr }
%class.vector.34 = type { ptr }
%"class.sat::asymm_branch" = type { ptr, %class.params_ref, i64, %class.random_gen, i32, i32, i8, i32, i32, i8, i8, i64, i32, i32, i32, %class.svector, %class.svector, %class.svector.37, %class.svector.37, %class.svector, %class.svector }
%class.svector.37 = type { %class.vector.38 }
%class.vector.38 = type { ptr }
%"class.sat::probing" = type { ptr, i32, %"class.sat::literal_set", %class.svector, i32, i8, i32, i8, i8, i64, i32, %class.vector.39, %class.svector.40, %"class.sat::big" }
%class.vector.39 = type { ptr }
%"class.sat::mus" = type <{ ptr, %class.svector, %class.svector, i8, [7 x i8], %class.svector.19, i32, [4 x i8] }>
%"class.sat::binspr" = type <{ ptr, %class.scoped_ptr.42, i32, i32, %class.vector.43, i32, i32, %class.svector.22, %class.svector.22, %class.svector, %class.svector, i32, i32, i32, i32, i32, [4 x i32], [5 x i32], [5 x i32], [4 x i8] }>
%class.vector.43 = type { ptr }
%"class.sat::justification" = type <{ i32, [4 x i8], i64, i32, [4 x i8] }>
%class.ptr_vector.26 = type { %class.vector.27 }
%class.vector.27 = type { ptr }
%class.vector.44 = type { ptr }
%class.svector.19 = type { %class.vector.20 }
%class.vector.20 = type { ptr }
%class.svector.45 = type { %class.vector.46 }
%class.vector.46 = type { ptr }
%class.svector.22 = type { %class.vector.23 }
%class.vector.23 = type { ptr }
%"struct.sat::backoff" = type { i32, i32, i32, i32, i32 }
%class.var_queue = type { %class.heap }
%class.heap = type { %"struct.var_queue<svector<unsigned int>>::lt", %class.svector.35, %class.svector.35 }
%"struct.var_queue<svector<unsigned int>>::lt" = type { ptr }
%class.ema = type { double, double, double, i32, i32 }
%class.svector.32 = type { %class.vector.33 }
%class.vector.33 = type { ptr }
%"class.std::__cxx11::basic_string" = type { %"struct.std::__cxx11::basic_string<char>::_Alloc_hider", i64, %union.anon }
%"struct.std::__cxx11::basic_string<char>::_Alloc_hider" = type { ptr }
%union.anon = type { i64, [8 x i8] }
%class.visit_helper = type { %class.svector.2, i32, i32 }
%class.svector.49 = type { %class.vector.50 }
%class.vector.50 = type { ptr }
%class.scoped_limit_trail = type { %class.svector.2, i32, i32 }
%class.stopwatch = type <{ %"class.std::chrono::time_point", %"class.std::chrono::duration", i8, [7 x i8] }>
%"class.std::chrono::time_point" = type { %"class.std::chrono::duration" }
%"class.std::chrono::duration" = type { i64 }
%"struct.sat::no_drat_params" = type { %class.params_ref }
%class.scoped_ptr.42 = type { ptr }
%"class.sat::literal_set" = type { %class.tracked_uint_set }
%class.statistics = type { %class.svector.51, %class.svector.53 }
%class.svector.51 = type { %class.vector.52 }
%class.vector.52 = type { ptr }
%class.svector.53 = type { %class.vector.54 }
%class.vector.54 = type { ptr }
%class.svector.47 = type { %class.vector.48 }
%class.vector.48 = type { ptr }
%class.svector.30 = type { %class.vector.31 }
%class.vector.31 = type { ptr }
%class.approx_set_tpl = type { i32 }
%class.vector.18 = type { ptr }
%class.svector.40 = type { %class.vector.41 }
%class.vector.41 = type { ptr }
%class.u_map = type { %class.map }
%class.map = type { %class.table2map }
%class.table2map = type { %class.core_hashtable.55 }
%class.core_hashtable.55 = type <{ ptr, i32, i32, i32, [4 x i8] }>

; Function Attrs: mustprogress uwtable
define hidden void @_ZN3sat14cut_simplifier14untrack_binaryENS_7literalES1_(ptr noundef nonnull align 8 dereferenceable(600) %this, i32 %u.coerce, i32 %v.coerce) #5 align 2 {
entry:
  %u = alloca %"class.sat::literal", align 4
  %v = alloca %"class.sat::literal", align 4
  %this.addr = alloca ptr, align 8
  %agg.tmp = alloca %"class.sat::literal", align 4
  %agg.tmp5 = alloca %"class.sat::literal", align 4
  %coerce.dive = getelementptr inbounds %"class.sat::literal", ptr %u, i32 0, i32 0
  store i32 %u.coerce, ptr %coerce.dive, align 4
  %coerce.dive1 = getelementptr inbounds %"class.sat::literal", ptr %v, i32 0, i32 0
  store i32 %v.coerce, ptr %coerce.dive1, align 4
  store ptr %this, ptr %this.addr, align 8
  %this2 = load ptr, ptr %this.addr, align 8
  %s = getelementptr inbounds %"class.sat::cut_simplifier", ptr %this2, i32 0, i32 0
  %0 = load ptr, ptr %s, align 8
  %m_config = getelementptr inbounds %"class.sat::solver", ptr %0, i32 0, i32 3
  %m_drat = getelementptr inbounds %"struct.sat::config", ptr %m_config, i32 0, i32 96
  %1 = load i8, ptr %m_drat, align 8
  %tobool = trunc i8 %1 to i1
  br i1 %tobool, label %if.then, label %if.end

if.then:                                          ; preds = %entry
  %s3 = getelementptr inbounds %"class.sat::cut_simplifier", ptr %this2, i32 0, i32 0
  %2 = load ptr, ptr %s3, align 8
  %m_drat4 = getelementptr inbounds %"class.sat::solver", ptr %2, i32 0, i32 8
  call void @llvm.memcpy.p0.p0.i64(ptr align 4 %agg.tmp, ptr align 4 %u, i64 4, i1 false)
  call void @llvm.memcpy.p0.p0.i64(ptr align 4 %agg.tmp5, ptr align 4 %v, i64 4, i1 false)
  %coerce.dive6 = getelementptr inbounds %"class.sat::literal", ptr %agg.tmp, i32 0, i32 0
  %3 = load i32, ptr %coerce.dive6, align 4
  %coerce.dive7 = getelementptr inbounds %"class.sat::literal", ptr %agg.tmp5, i32 0, i32 0
  %4 = load i32, ptr %coerce.dive7, align 4
  call void @_ZN3sat4drat3delENS_7literalES1_(ptr noundef nonnull align 8 dereferenceable(664) %m_drat4, i32 %3, i32 %4)
  br label %if.end

if.end:                                           ; preds = %if.then, %entry
  ret void
}