; Function Attrs: mustprogress uwtable
define hidden void @_ZN3sat14cut_simplifier14untrack_binaryENS_7literalES1_(ptr nocapture noundef nonnull readonly align 8 dereferenceable(600) %this, i32 %u.coerce, i32 %v.coerce) local_unnamed_addr #3 align 2 {
entry:
  %0 = load ptr, ptr %this, align 8
  %m_drat = getelementptr inbounds i8, ptr %0, i64 352
  %1 = load i8, ptr %m_drat, align 8
  %2 = and i8 %1, 1
  %tobool.not = icmp eq i8 %2, 0
  br i1 %tobool.not, label %if.end, label %if.then

if.then:                                          ; preds = %entry
  %m_drat4 = getelementptr inbounds i8, ptr %0, i64 552
  tail call void @_ZN3sat4drat3delENS_7literalES1_(ptr noundef nonnull align 8 dereferenceable(664) %m_drat4, i32 %u.coerce, i32 %v.coerce)
  br label %if.end

if.end:                                           ; preds = %if.then, %entry
  ret void
}